; Function Attrs: mustprogress uwtable
define void @_ZNK8facebook5velox4core10ExpandNode10addDetailsERNSt7__cxx1118basic_stringstreamIcSt11char_traitsIcESaIcEEE(ptr nocapture noundef nonnull readonly align 8 dereferenceable(104) %this, ptr noundef nonnull align 8 dereferenceable(128) %stream) unnamed_addr #0 align 2 {
entry:
  %projections_ = getelementptr inbounds i8, ptr %this, i64 80
  %_M_finish.i = getelementptr inbounds i8, ptr %this, i64 88
  %0 = load ptr, ptr %_M_finish.i, align 8
  %1 = load ptr, ptr %projections_, align 8
  %cmp12.not = icmp eq ptr %0, %1
  br i1 %cmp12.not, label %for.end, label %for.body.lr.ph

for.body.lr.ph:                                   ; preds = %entry
  %add.ptr.i = getelementptr inbounds i8, ptr %stream, i64 16
  br label %for.body

for.body:                                         ; preds = %for.body.lr.ph, %_ZN8facebook5velox4core12_GLOBAL__N_111appendCommaEiRNSt7__cxx1118basic_stringstreamIcSt11char_traitsIcESaIcEEE.exit
  %indvars.iv = phi i64 [ 0, %for.body.lr.ph ], [ %indvars.iv.next, %_ZN8facebook5velox4core12_GLOBAL__N_111appendCommaEiRNSt7__cxx1118basic_stringstreamIcSt11char_traitsIcESaIcEEE.exit ]
  %cmp.i.not = icmp eq i64 %indvars.iv, 0
  br i1 %cmp.i.not, label %_ZN8facebook5velox4core12_GLOBAL__N_111appendCommaEiRNSt7__cxx1118basic_stringstreamIcSt11char_traitsIcESaIcEEE.exit, label %if.then.i

if.then.i:                                        ; preds = %for.body
  %call.i = tail call noundef nonnull align 8 dereferenceable(8) ptr @_ZStlsISt11char_traitsIcEERSt13basic_ostreamIcT_ES5_PKc(ptr noundef nonnull align 8 dereferenceable(8) %add.ptr.i, ptr noundef nonnull @.str.15)
  br label %_ZN8facebook5velox4core12_GLOBAL__N_111appendCommaEiRNSt7__cxx1118basic_stringstreamIcSt11char_traitsIcESaIcEEE.exit

_ZN8facebook5velox4core12_GLOBAL__N_111appendCommaEiRNSt7__cxx1118basic_stringstreamIcSt11char_traitsIcESaIcEEE.exit: ; preds = %for.body, %if.then.i
  %call2 = tail call noundef nonnull align 8 dereferenceable(8) ptr @_ZStlsISt11char_traitsIcEERSt13basic_ostreamIcT_ES5_PKc(ptr noundef nonnull align 8 dereferenceable(8) %add.ptr.i, ptr noundef nonnull @.str.8)
  %2 = load ptr, ptr %projections_, align 8
  %add.ptr.i7 = getelementptr inbounds %"class.std::vector.44", ptr %2, i64 %indvars.iv
  tail call fastcc void @_ZN8facebook5velox4core12_GLOBAL__N_17addKeysERNSt7__cxx1118basic_stringstreamIcSt11char_traitsIcESaIcEEERKSt6vectorISt10shared_ptrIKNS1_10ITypedExprEESaISE_EE(ptr noundef nonnull align 8 dereferenceable(128) %stream, ptr noundef nonnull align 8 dereferenceable(24) %add.ptr.i7)
  %call7 = tail call noundef nonnull align 8 dereferenceable(8) ptr @_ZStlsISt11char_traitsIcEERSt13basic_ostreamIcT_ES5_PKc(ptr noundef nonnull align 8 dereferenceable(8) %add.ptr.i, ptr noundef nonnull @.str.32)
  %indvars.iv.next = add nuw i64 %indvars.iv, 1
  %3 = load ptr, ptr %_M_finish.i, align 8
  %4 = load ptr, ptr %projections_, align 8
  %sub.ptr.lhs.cast.i = ptrtoint ptr %3 to i64
  %sub.ptr.rhs.cast.i = ptrtoint ptr %4 to i64
  %sub.ptr.sub.i = sub i64 %sub.ptr.lhs.cast.i, %sub.ptr.rhs.cast.i
  %sub.ptr.div.i = sdiv exact i64 %sub.ptr.sub.i, 24
  %cmp = icmp ugt i64 %sub.ptr.div.i, %indvars.iv.next
  br i1 %cmp, label %for.body, label %for.end, !llvm.loop !117

for.end:                                          ; preds = %_ZN8facebook5velox4core12_GLOBAL__N_111appendCommaEiRNSt7__cxx1118basic_stringstreamIcSt11char_traitsIcESaIcEEE.exit, %entry
  ret void
}